target datalayout = "e-m:e-p270:32:32-p271:32:32-p272:64:64-i64:64-i128:128-f80:128-n8:16:32:64-S128"
target triple = "x86_64-unknown-linux-gnu"

%"class.QuantLib::DayCounter" = type { %"class.boost::shared_ptr.6" }
%"class.boost::shared_ptr.6" = type { ptr, %"class.boost::detail::shared_count" }
%"class.boost::detail::shared_count" = type { ptr }
%"class.QuantLib::Extrapolator.base" = type <{ ptr, i8 }>
%"class.QuantLib::Calendar" = type { %"class.boost::shared_ptr.7" }
%"class.boost::shared_ptr.7" = type { ptr, %"class.boost::detail::shared_count" }
%"class.QuantLib::Date" = type { i64 }
%"class.QuantLib::Observer" = type { ptr, %"class.std::set" }
%"class.std::set" = type { %"class.std::_Rb_tree" }
%"class.std::_Rb_tree" = type { %"struct.std::_Rb_tree<boost::shared_ptr<QuantLib::Observable>, boost::shared_ptr<QuantLib::Observable>, std::_Identity<boost::shared_ptr<QuantLib::Observable>>, std::less<boost::shared_ptr<QuantLib::Observable>>>::_Rb_tree_impl" }
%"struct.std::_Rb_tree<boost::shared_ptr<QuantLib::Observable>, boost::shared_ptr<QuantLib::Observable>, std::_Identity<boost::shared_ptr<QuantLib::Observable>>, std::less<boost::shared_ptr<QuantLib::Observable>>>::_Rb_tree_impl" = type { [8 x i8], %"struct.std::_Rb_tree_header" }
%"struct.std::_Rb_tree_header" = type { %"struct.std::_Rb_tree_node_base", i64 }
%"struct.std::_Rb_tree_node_base" = type { i32, ptr, ptr, ptr }
%"class.QuantLib::Observable" = type { ptr, %"class.std::set.0" }
%"class.std::set.0" = type { %"class.std::_Rb_tree.1" }
%"class.std::_Rb_tree.1" = type { %"struct.std::_Rb_tree<QuantLib::Observer *, QuantLib::Observer *, std::_Identity<QuantLib::Observer *>, std::less<QuantLib::Observer *>>::_Rb_tree_impl" }
%"struct.std::_Rb_tree<QuantLib::Observer *, QuantLib::Observer *, std::_Identity<QuantLib::Observer *>, std::less<QuantLib::Observer *>>::_Rb_tree_impl" = type { [8 x i8], %"struct.std::_Rb_tree_header" }
%"class.QuantLib::TermStructure.base" = type { %"class.QuantLib::Extrapolator.base", i8, i8, %"class.QuantLib::Calendar", %"class.QuantLib::Date", i32, %"class.QuantLib::DayCounter" }
%"class.QuantLib::Interpolation" = type { %"class.QuantLib::Extrapolator.base", %"class.boost::shared_ptr.22" }
%"class.boost::shared_ptr.22" = type { ptr, %"class.boost::detail::shared_count" }
%"class.QuantLib::SwaptionVolatilityDiscrete" = type { %"class.QuantLib::LazyObject.base", [4 x i8], %"class.QuantLib::SwaptionVolatilityStructure.base", i64, %"class.std::vector", %"class.std::vector.12", %"class.std::vector.17", %"class.QuantLib::Interpolation", %"class.std::vector.17", %"class.std::vector.17", %"class.std::vector.17", i64, %"class.std::vector", %"class.std::vector.17", %"class.QuantLib::Date", %"class.QuantLib::Observable", %"class.QuantLib::Observer" }
%"class.QuantLib::LazyObject.base" = type <{ ptr, i8, i8, i8, i8 }>
%"class.QuantLib::SwaptionVolatilityStructure.base" = type { %"class.QuantLib::VolatilityTermStructure.base" }
%"class.QuantLib::VolatilityTermStructure.base" = type <{ %"class.QuantLib::TermStructure.base", i32 }>
%"class.std::vector.12" = type { %"struct.std::_Vector_base.13" }
%"struct.std::_Vector_base.13" = type { %"struct.std::_Vector_base<QuantLib::Date, std::allocator<QuantLib::Date>>::_Vector_impl" }
%"struct.std::_Vector_base<QuantLib::Date, std::allocator<QuantLib::Date>>::_Vector_impl" = type { %"struct.std::_Vector_base<QuantLib::Date, std::allocator<QuantLib::Date>>::_Vector_impl_data" }
%"struct.std::_Vector_base<QuantLib::Date, std::allocator<QuantLib::Date>>::_Vector_impl_data" = type { ptr, ptr, ptr }
%"class.std::vector" = type { %"struct.std::_Vector_base" }
%"struct.std::_Vector_base" = type { %"struct.std::_Vector_base<QuantLib::Period, std::allocator<QuantLib::Period>>::_Vector_impl" }
%"struct.std::_Vector_base<QuantLib::Period, std::allocator<QuantLib::Period>>::_Vector_impl" = type { %"struct.std::_Vector_base<QuantLib::Period, std::allocator<QuantLib::Period>>::_Vector_impl_data" }
%"struct.std::_Vector_base<QuantLib::Period, std::allocator<QuantLib::Period>>::_Vector_impl_data" = type { ptr, ptr, ptr }
%"class.std::vector.17" = type { %"struct.std::_Vector_base.18" }
%"struct.std::_Vector_base.18" = type { %"struct.std::_Vector_base<double, std::allocator<double>>::_Vector_impl" }
%"struct.std::_Vector_base<double, std::allocator<double>>::_Vector_impl" = type { %"struct.std::_Vector_base<double, std::allocator<double>>::_Vector_impl_data" }
%"struct.std::_Vector_base<double, std::allocator<double>>::_Vector_impl_data" = type { ptr, ptr, ptr }
%"class.QuantLib::Period" = type { i32, i32 }

; Function Attrs: mustprogress nounwind uwtable
define linkonce_odr noundef nonnull align 8 dereferenceable(8) ptr @_ZNSt6vectorIdSaIdEEixEm(ptr noundef nonnull align 8 dereferenceable(24) %this, i64 noundef %__n) #4 comdat align 2 {
entry:
  %this.addr = alloca ptr, align 8
  %__n.addr = alloca i64, align 8
  store ptr %this, ptr %this.addr, align 8, !tbaa !3
  store i64 %__n, ptr %__n.addr, align 8, !tbaa !53
  %this1 = load ptr, ptr %this.addr, align 8
  %_M_impl = getelementptr inbounds nuw %"struct.std::_Vector_base.18", ptr %this1, i32 0, i32 0
  %_M_start = getelementptr inbounds nuw %"struct.std::_Vector_base<double, std::allocator<double>>::_Vector_impl_data", ptr %_M_impl, i32 0, i32 0
  %0 = load ptr, ptr %_M_start, align 8, !tbaa !65
  %1 = load i64, ptr %__n.addr, align 8, !tbaa !53
  %add.ptr = getelementptr inbounds nuw double, ptr %0, i64 %1
  ret ptr %add.ptr
}

; Function Attrs: mustprogress nounwind uwtable
define linkonce_odr noundef nonnull align 4 dereferenceable(8) ptr @_ZNKSt6vectorIN8QuantLib6PeriodESaIS1_EEixEm(ptr noundef nonnull align 8 dereferenceable(24) %this, i64 noundef %__n) #4 comdat align 2 {
entry:
  %this.addr = alloca ptr, align 8
  %__n.addr = alloca i64, align 8
  store ptr %this, ptr %this.addr, align 8, !tbaa !3
  store i64 %__n, ptr %__n.addr, align 8, !tbaa !53
  %this1 = load ptr, ptr %this.addr, align 8
  %_M_impl = getelementptr inbounds nuw %"struct.std::_Vector_base", ptr %this1, i32 0, i32 0
  %_M_start = getelementptr inbounds nuw %"struct.std::_Vector_base<QuantLib::Period, std::allocator<QuantLib::Period>>::_Vector_impl_data", ptr %_M_impl, i32 0, i32 0
  %0 = load ptr, ptr %_M_start, align 8, !tbaa !55
  %1 = load i64, ptr %__n.addr, align 8, !tbaa !53
  %add.ptr = getelementptr inbounds nuw %"class.QuantLib::Period", ptr %0, i64 %1
  ret ptr %add.ptr
}

; Function Attrs: mustprogress uwtable
define void @_ZNK8QuantLib26SwaptionVolatilityDiscrete21initializeSwapLengthsEv(ptr noundef nonnull align 8 dereferenceable(336) %this) #9 align 2 {
entry:
  %this.addr = alloca ptr, align 8
  %i = alloca i64, align 8
  store ptr %this, ptr %this.addr, align 8, !tbaa !3
  %this1 = load ptr, ptr %this.addr, align 8
  call void @llvm.lifetime.start.p0(i64 8, ptr %i) #22
  store i64 0, ptr %i, align 8, !tbaa !53
  br label %for.cond

for.cond:                                         ; preds = %for.inc, %entry
  %0 = load i64, ptr %i, align 8, !tbaa !53
  %nSwapTenors_ = getelementptr inbounds nuw %"class.QuantLib::SwaptionVolatilityDiscrete", ptr %this1, i32 0, i32 11
  %1 = load i64, ptr %nSwapTenors_, align 8, !tbaa !51
  %cmp = icmp ult i64 %0, %1
  br i1 %cmp, label %for.body, label %for.cond.cleanup

for.cond.cleanup:                                 ; preds = %for.cond
  call void @llvm.lifetime.end.p0(i64 8, ptr %i) #22
  br label %for.end

for.body:                                         ; preds = %for.cond
  %add.ptr = getelementptr inbounds i8, ptr %this1, i64 16
  %swapTenors_ = getelementptr inbounds nuw %"class.QuantLib::SwaptionVolatilityDiscrete", ptr %this1, i32 0, i32 12
  %2 = load i64, ptr %i, align 8, !tbaa !53
  %call = call noundef nonnull align 4 dereferenceable(8) ptr @_ZNKSt6vectorIN8QuantLib6PeriodESaIS1_EEixEm(ptr noundef nonnull align 8 dereferenceable(24) %swapTenors_, i64 noundef %2) #22
  %call2 = call noundef double @_ZNK8QuantLib27SwaptionVolatilityStructure10swapLengthERKNS_6PeriodE(ptr noundef nonnull align 8 dereferenceable(68) %add.ptr, ptr noundef nonnull align 4 dereferenceable(8) %call)
  %swapLengths_ = getelementptr inbounds nuw %"class.QuantLib::SwaptionVolatilityDiscrete", ptr %this1, i32 0, i32 13
  %3 = load i64, ptr %i, align 8, !tbaa !53
  %call3 = call noundef nonnull align 8 dereferenceable(8) ptr @_ZNSt6vectorIdSaIdEEixEm(ptr noundef nonnull align 8 dereferenceable(24) %swapLengths_, i64 noundef %3) #22
  store double %call2, ptr %call3, align 8, !tbaa !58
  br label %for.inc

for.inc:                                          ; preds = %for.body
  %4 = load i64, ptr %i, align 8, !tbaa !53
  %inc = add i64 %4, 1
  store i64 %inc, ptr %i, align 8, !tbaa !53
  br label %for.cond, !llvm.loop !62

for.end:                                          ; preds = %for.cond.cleanup
  ret void
}