; Function Attrs: mustprogress uwtable
define void @_ZNK8QuantLib26SwaptionVolatilityDiscrete21initializeSwapLengthsEv(ptr noundef nonnull align 8 dereferenceable(336) %this) local_unnamed_addr #8 align 2 {
entry:
  %nSwapTenors_ = getelementptr inbounds nuw i8, ptr %this, i64 272
  %0 = load i64, ptr %nSwapTenors_, align 8, !tbaa !63
  %cmp5.not = icmp eq i64 %0, 0
  br i1 %cmp5.not, label %for.cond.cleanup, label %for.body.lr.ph

for.body.lr.ph:                                   ; preds = %entry
  %add.ptr = getelementptr inbounds i8, ptr %this, i64 16
  %swapTenors_ = getelementptr inbounds nuw i8, ptr %this, i64 280
  %swapLengths_ = getelementptr inbounds nuw i8, ptr %this, i64 304
  br label %for.body

for.cond.cleanup:                                 ; preds = %for.body, %entry
  ret void

for.body:                                         ; preds = %for.body.lr.ph, %for.body
  %i.06 = phi i64 [ 0, %for.body.lr.ph ], [ %inc, %for.body ]
  %1 = load ptr, ptr %swapTenors_, align 8, !tbaa !35
  %add.ptr.i = getelementptr inbounds nuw %"class.QuantLib::Period", ptr %1, i64 %i.06
  %call2 = tail call noundef double @_ZNK8QuantLib27SwaptionVolatilityStructure10swapLengthERKNS_6PeriodE(ptr noundef nonnull align 8 dereferenceable(68) %add.ptr, ptr noundef nonnull align 4 dereferenceable(8) %add.ptr.i)
  %2 = load ptr, ptr %swapLengths_, align 8, !tbaa !57
  %add.ptr.i4 = getelementptr inbounds nuw double, ptr %2, i64 %i.06
  store double %call2, ptr %add.ptr.i4, align 8, !tbaa !59
  %inc = add nuw i64 %i.06, 1
  %3 = load i64, ptr %nSwapTenors_, align 8, !tbaa !63
  %cmp = icmp ult i64 %inc, %3
  br i1 %cmp, label %for.body, label %for.cond.cleanup, !llvm.loop !64
}